; Function Attrs: mustprogress uwtable
define void @_ZN3net12HpackEncoderC2ERKNS_17HpackHuffmanTableE(ptr noundef nonnull align 8 dereferenceable(346) %0, ptr noundef nonnull align 8 dereferenceable(100) %1) unnamed_addr #0 align 2 personality ptr @__gxx_personality_v0 {
  tail call void @_ZN3net16HpackHeaderTableC1Ev(ptr noundef nonnull align 8 dereferenceable(256) %0)
  %3 = getelementptr inbounds nuw i8, ptr %0, i64 256
  invoke void @_ZN3net17HpackOutputStreamC1Ev(ptr noundef nonnull align 8 dereferenceable(40) %3)
          to label %4 unwind label %13

4:                                                ; preds = %2
  %5 = getelementptr inbounds nuw i8, ptr %0, i64 296
  store ptr %1, ptr %5, align 8, !tbaa !3
  %6 = getelementptr inbounds nuw i8, ptr %0, i64 304
  store i64 -1, ptr %6, align 8, !tbaa !8
  %7 = getelementptr inbounds nuw i8, ptr %0, i64 312
  %8 = getelementptr inbounds nuw i8, ptr %0, i64 328
  %9 = getelementptr inbounds nuw i8, ptr %0, i64 336
  %10 = getelementptr inbounds nuw i8, ptr %0, i64 320
  store i64 0, ptr %10, align 8
  store ptr @_ZN3net12_GLOBAL__N_113DefaultPolicyEN4base16BasicStringPieceINSt7__cxx1112basic_stringIcSt11char_traitsIcESaIcEEEEES9_, ptr %7, align 8, !tbaa !45
  store ptr @_ZNSt17_Function_handlerIFbN4base16BasicStringPieceINSt7__cxx1112basic_stringIcSt11char_traitsIcESaIcEEEEES8_EPS9_E9_M_invokeERKSt9_Any_dataOS8_SF_, ptr %9, align 8, !tbaa !46
  store ptr @_ZNSt17_Function_handlerIFbN4base16BasicStringPieceINSt7__cxx1112basic_stringIcSt11char_traitsIcESaIcEEEEES8_EPS9_E10_M_managerERSt9_Any_dataRKSC_St18_Manager_operation, ptr %8, align 8, !tbaa !47
  %11 = getelementptr inbounds nuw i8, ptr %0, i64 344
  store i8 1, ptr %11, align 8, !tbaa !48
  %12 = getelementptr inbounds nuw i8, ptr %0, i64 345
  store i8 0, ptr %12, align 1, !tbaa !49
  ret void

13:                                               ; preds = %2
  %14 = landingpad { ptr, i32 }
          cleanup
  tail call void @_ZN3net16HpackHeaderTableD1Ev(ptr noundef nonnull align 8 dereferenceable(256) %0) #15
  resume { ptr, i32 } %14
}